target datalayout = "e-m:e-p270:32:32-p271:32:32-p272:64:64-i64:64-i128:128-f80:128-n8:16:32:64-S128"
target triple = "x86_64-pc-linux-gnu"

; Function Attrs: nounwind uwtable
define i32 @ff_fmt_is_in(i32 noundef %0, ptr noundef %1) #0 {
  %3 = alloca i32, align 4
  %4 = alloca i32, align 4
  %5 = alloca ptr, align 8
  %6 = alloca ptr, align 8
  %7 = alloca i32, align 4
  store i32 %0, ptr %4, align 4, !tbaa !21
  store ptr %1, ptr %5, align 8, !tbaa !22
  call void @llvm.lifetime.start.p0(i64 8, ptr %6) #7
  %8 = load ptr, ptr %5, align 8, !tbaa !22
  store ptr %8, ptr %6, align 8, !tbaa !22
  br label %9

9:                                                ; preds = %20, %2
  %10 = load ptr, ptr %6, align 8, !tbaa !22
  %11 = load i32, ptr %10, align 4, !tbaa !21
  %12 = icmp ne i32 %11, -1
  br i1 %12, label %13, label %23

13:                                               ; preds = %9
  %14 = load i32, ptr %4, align 4, !tbaa !21
  %15 = load ptr, ptr %6, align 8, !tbaa !22
  %16 = load i32, ptr %15, align 4, !tbaa !21
  %17 = icmp eq i32 %14, %16
  br i1 %17, label %18, label %19

18:                                               ; preds = %13
  store i32 1, ptr %3, align 4
  store i32 1, ptr %7, align 4
  br label %24

19:                                               ; preds = %13
  br label %20

20:                                               ; preds = %19
  %21 = load ptr, ptr %6, align 8, !tbaa !22
  %22 = getelementptr inbounds nuw i32, ptr %21, i32 1
  store ptr %22, ptr %6, align 8, !tbaa !22
  br label %9, !llvm.loop !24

23:                                               ; preds = %9
  store i32 0, ptr %3, align 4
  store i32 1, ptr %7, align 4
  br label %24

24:                                               ; preds = %23, %18
  call void @llvm.lifetime.end.p0(i64 8, ptr %6) #7
  %25 = load i32, ptr %3, align 4
  ret i32 %25
}