; Function Attrs: nofree norecurse nosync nounwind memory(argmem: read) uwtable
define range(i32 0, 2) i32 @ff_fmt_is_in(i32 noundef %0, ptr noundef readonly captures(none) %1) local_unnamed_addr #1 {
  %3 = load i32, ptr %1, align 4, !tbaa !19
  %.not7 = icmp eq i32 %3, -1
  br i1 %.not7, label %._crit_edge, label %.lr.ph

4:                                                ; preds = %.lr.ph
  %5 = getelementptr inbounds nuw i8, ptr %.08, i64 4
  %6 = load i32, ptr %5, align 4, !tbaa !19
  %.not = icmp eq i32 %6, -1
  br i1 %.not, label %._crit_edge, label %.lr.ph, !llvm.loop !20

.lr.ph:                                           ; preds = %2, %4
  %7 = phi i32 [ %6, %4 ], [ %3, %2 ]
  %.08 = phi ptr [ %5, %4 ], [ %1, %2 ]
  %8 = icmp eq i32 %0, %7
  br i1 %8, label %._crit_edge, label %4

._crit_edge:                                      ; preds = %.lr.ph, %4, %2
  %.05 = phi i32 [ 0, %2 ], [ 0, %4 ], [ 1, %.lr.ph ]
  ret i32 %.05
}